target datalayout = "e-m:e-p270:32:32-p271:32:32-p272:64:64-i64:64-i128:128-f80:128-n8:16:32:64-S128"
target triple = "x86_64-pc-linux-gnu"

; Function Attrs: nounwind uwtable
define internal void @scatter_partial_int64_1(ptr noundef %0, ptr noundef %1, i64 noundef %2, i64 noundef %3) #0 {
  %5 = alloca ptr, align 8
  %6 = alloca ptr, align 8
  %7 = alloca i64, align 8
  %8 = alloca i64, align 8
  %9 = alloca i64, align 8
  store ptr %0, ptr %5, align 8, !tbaa !8
  store ptr %1, ptr %6, align 8, !tbaa !8
  store i64 %2, ptr %7, align 8, !tbaa !21
  store i64 %3, ptr %8, align 8, !tbaa !21
  call void @llvm.lifetime.start.p0(i64 8, ptr %9) #4
  store i64 0, ptr %9, align 8, !tbaa !21
  br label %10

10:                                               ; preds = %19, %4
  %11 = load i64, ptr %9, align 8, !tbaa !21
  %12 = load i64, ptr %7, align 8, !tbaa !21
  %13 = icmp ult i64 %11, %12
  br i1 %13, label %14, label %25

14:                                               ; preds = %10
  %15 = load ptr, ptr %5, align 8, !tbaa !8
  %16 = getelementptr inbounds nuw i64, ptr %15, i32 1
  store ptr %16, ptr %5, align 8, !tbaa !8
  %17 = load i64, ptr %15, align 8, !tbaa !21
  %18 = load ptr, ptr %6, align 8, !tbaa !8
  store i64 %17, ptr %18, align 8, !tbaa !21
  br label %19

19:                                               ; preds = %14
  %20 = load i64, ptr %9, align 8, !tbaa !21
  %21 = add i64 %20, 1
  store i64 %21, ptr %9, align 8, !tbaa !21
  %22 = load i64, ptr %8, align 8, !tbaa !21
  %23 = load ptr, ptr %6, align 8, !tbaa !8
  %24 = getelementptr inbounds i64, ptr %23, i64 %22
  store ptr %24, ptr %6, align 8, !tbaa !8
  br label %10

25:                                               ; preds = %10
  call void @llvm.lifetime.end.p0(i64 8, ptr %9) #4
  ret void
}

; Function Attrs: nounwind uwtable
define i64 @zfp_decode_partial_block_strided_int64_1(ptr noundef %0, ptr noundef %1, i64 noundef %2, i64 noundef %3) #0 {
  %5 = alloca ptr, align 8
  %6 = alloca ptr, align 8
  %7 = alloca i64, align 8
  %8 = alloca i64, align 8
  %9 = alloca [4 x i64], align 256
  %10 = alloca i64, align 8
  store ptr %0, ptr %5, align 8, !tbaa !4
  store ptr %1, ptr %6, align 8, !tbaa !8
  store i64 %2, ptr %7, align 8, !tbaa !21
  store i64 %3, ptr %8, align 8, !tbaa !21
  call void @llvm.lifetime.start.p0(i64 32, ptr %9) #4
  call void @llvm.lifetime.start.p0(i64 8, ptr %10) #4
  %11 = load ptr, ptr %5, align 8, !tbaa !4
  %12 = getelementptr inbounds [4 x i64], ptr %9, i64 0, i64 0
  %13 = call i64 @zfp_decode_block_int64_1(ptr noundef %11, ptr noundef %12)
  store i64 %13, ptr %10, align 8, !tbaa !21
  %14 = getelementptr inbounds [4 x i64], ptr %9, i64 0, i64 0
  %15 = load ptr, ptr %6, align 8, !tbaa !8
  %16 = load i64, ptr %7, align 8, !tbaa !21
  %17 = load i64, ptr %8, align 8, !tbaa !21
  call void @scatter_partial_int64_1(ptr noundef %14, ptr noundef %15, i64 noundef %16, i64 noundef %17)
  %18 = load i64, ptr %10, align 8, !tbaa !21
  call void @llvm.lifetime.end.p0(i64 8, ptr %10) #4
  call void @llvm.lifetime.end.p0(i64 32, ptr %9) #4
  ret i64 %18
}